target datalayout = "e-m:e-p270:32:32-p271:32:32-p272:64:64-i64:64-i128:128-f80:128-n8:16:32:64-S128"
target triple = "x86_64-pc-linux-gnu"

; Function Attrs: nounwind uwtable
define internal i32 @_blend_legacy_blend_mode(i32 noundef %0) #0 {
  %2 = alloca i32, align 4
  %3 = alloca i32, align 4
  %4 = alloca i32, align 4
  store i32 %0, ptr %2, align 4, !tbaa !11
  call void @llvm.lifetime.start.p0(i64 4, ptr %3) #10
  %5 = load i32, ptr %2, align 4, !tbaa !11
  %6 = and i32 %5, 255
  store i32 %6, ptr %3, align 4, !tbaa !11
  call void @llvm.lifetime.start.p0(i64 4, ptr %4) #10
  store i32 0, ptr %4, align 4, !tbaa !11
  %7 = load i32, ptr %3, align 4, !tbaa !11
  switch i32 %7, label %12 [
    i32 1, label %8
    i32 20, label %9
    i32 0, label %10
    i32 21, label %10
    i32 36, label %11
  ]

8:                                                ; preds = %1
  store i32 25, ptr %3, align 4, !tbaa !11
  br label %13

9:                                                ; preds = %1
  store i32 25, ptr %3, align 4, !tbaa !11
  store i32 1, ptr %4, align 4, !tbaa !11
  br label %13

10:                                               ; preds = %1, %1
  store i32 24, ptr %3, align 4, !tbaa !11
  br label %13

11:                                               ; preds = %1
  store i32 4, ptr %3, align 4, !tbaa !11
  store i32 1, ptr %4, align 4, !tbaa !11
  br label %13

12:                                               ; preds = %1
  br label %13

13:                                               ; preds = %12, %11, %10, %9, %8
  %14 = load i32, ptr %4, align 4, !tbaa !11
  %15 = icmp ne i32 %14, 0
  %16 = select i1 %15, i32 -2147483648, i32 0
  %17 = load i32, ptr %3, align 4, !tbaa !11
  %18 = or i32 %16, %17
  call void @llvm.lifetime.end.p0(i64 4, ptr %4) #10
  call void @llvm.lifetime.end.p0(i64 4, ptr %3) #10
  ret i32 %18
}