; Function Attrs: mustprogress nofree norecurse nosync nounwind willreturn memory(none) uwtable
define internal fastcc range(i32 0, -2147483392) i32 @_blend_legacy_blend_mode(i32 noundef %0) unnamed_addr #10 {
  %2 = and i32 %0, 255
  %trunc = trunc i32 %0 to i8
  switch i8 %trunc, label %7 [
    i8 1, label %3
    i8 20, label %4
    i8 0, label %5
    i8 21, label %5
    i8 36, label %6
  ]

3:                                                ; preds = %1
  br label %7

4:                                                ; preds = %1
  br label %7

5:                                                ; preds = %1, %1
  br label %7

6:                                                ; preds = %1
  br label %7

7:                                                ; preds = %1, %6, %5, %4, %3
  %.04 = phi i32 [ %2, %1 ], [ 4, %6 ], [ 24, %5 ], [ 25, %4 ], [ 25, %3 ]
  %.not = phi i32 [ 0, %1 ], [ -2147483648, %6 ], [ 0, %5 ], [ -2147483648, %4 ], [ 0, %3 ]
  %8 = or disjoint i32 %.not, %.04
  ret i32 %8
}